; ModuleID = '36/337.c'
source_filename = "36/337.c"
target datalayout = "e-m:e-p270:32:32-p271:32:32-p272:64:64-i64:64-f80:128-n8:16:32:64-S128"
target triple = "x86_64-pc-linux-gnu"

@.str = private unnamed_addr constant [5 x i8] c"%s%s\00", align 1
@.str.1 = private unnamed_addr constant [4 x i8] c"YES\00", align 1
@.str.2 = private unnamed_addr constant [3 x i8] c"NO\00", align 1

; Function Attrs: noinline nounwind uwtable
define dso_local void @main() #0 {
  %1 = alloca [100 x i8], align 16
  %2 = alloca [100 x i8], align 16
  %3 = alloca i32, align 4
  %4 = getelementptr inbounds [100 x i8], [100 x i8]* %1, i64 0, i64 0
  %5 = getelementptr inbounds [100 x i8], [100 x i8]* %2, i64 0, i64 0
  %6 = call i32 (i8*, ...) @__isoc99_scanf(i8* getelementptr inbounds ([5 x i8], [5 x i8]* @.str, i64 0, i64 0), i8* %4, i8* %5)
  %7 = getelementptr inbounds [100 x i8], [100 x i8]* %1, i64 0, i64 0
  %8 = getelementptr inbounds [100 x i8], [100 x i8]* %2, i64 0, i64 0
  %9 = call i32 @flag(i8* %7, i8* %8)
  store i32 %9, i32* %3, align 4
  %10 = load i32, i32* %3, align 4
  %11 = icmp eq i32 %10, 0
  br i1 %11, label %12, label %14

12:                                               ; preds = %0
  %13 = call i32 (i8*, ...) @printf(i8* getelementptr inbounds ([4 x i8], [4 x i8]* @.str.1, i64 0, i64 0))
  br label %16

14:                                               ; preds = %0
  %15 = call i32 (i8*, ...) @printf(i8* getelementptr inbounds ([3 x i8], [3 x i8]* @.str.2, i64 0, i64 0))
  br label %16

16:                                               ; preds = %14, %12
  ret void
}

declare dso_local i32 @__isoc99_scanf(i8*, ...) #1

; Function Attrs: noinline nounwind uwtable
define dso_local i32 @flag(i8* %0, i8* %1) #0 {
  %3 = alloca i8*, align 8
  %4 = alloca i8*, align 8
  %5 = alloca i32, align 4
  %6 = alloca i32, align 4
  %7 = alloca i32, align 4
  %8 = alloca i32, align 4
  %9 = alloca i32, align 4
  store i8* %0, i8** %3, align 8
  store i8* %1, i8** %4, align 8
  %10 = load i8*, i8** %3, align 8
  %11 = call i64 @strlen(i8* %10) #3
  %12 = trunc i64 %11 to i32
  store i32 %12, i32* %8, align 4
  %13 = load i8*, i8** %4, align 8
  %14 = call i64 @strlen(i8* %13) #3
  %15 = trunc i64 %14 to i32
  store i32 %15, i32* %9, align 4
  %16 = load i32, i32* %8, align 4
  %17 = load i32, i32* %9, align 4
  %18 = icmp ne i32 %16, %17
  br i1 %18, label %19, label %20

19:                                               ; preds = %2
  store i32 1, i32* %7, align 4
  br label %65

20:                                               ; preds = %2
  store i32 0, i32* %5, align 4
  %21 = load i32, i32* %8, align 4
  store i32 %21, i32* %7, align 4
  br label %22

22:                                               ; preds = %61, %20
  %23 = load i32, i32* %5, align 4
  %24 = load i32, i32* %8, align 4
  %25 = icmp slt i32 %23, %24
  br i1 %25, label %26, label %64

26:                                               ; preds = %22
  store i32 0, i32* %6, align 4
  br label %27

27:                                               ; preds = %57, %26
  %28 = load i32, i32* %6, align 4
  %29 = load i32, i32* %9, align 4
  %30 = icmp slt i32 %28, %29
  br i1 %30, label %31, label %60

31:                                               ; preds = %27
  %32 = load i8*, i8** %3, align 8
  %33 = load i32, i32* %5, align 4
  %34 = sext i32 %33 to i64
  %35 = getelementptr inbounds i8, i8* %32, i64 %34
  %36 = load i8, i8* %35, align 1
  %37 = sext i8 %36 to i32
  %38 = load i8*, i8** %4, align 8
  %39 = load i32, i32* %6, align 4
  %40 = sext i32 %39 to i64
  %41 = getelementptr inbounds i8, i8* %38, i64 %40
  %42 = load i8, i8* %41, align 1
  %43 = sext i8 %42 to i32
  %44 = icmp eq i32 %37, %43
  br i1 %44, label %45, label %56

45:                                               ; preds = %31
  %46 = load i8*, i8** %3, align 8
  %47 = load i32, i32* %5, align 4
  %48 = sext i32 %47 to i64
  %49 = getelementptr inbounds i8, i8* %46, i64 %48
  store i8 0, i8* %49, align 1
  %50 = load i8*, i8** %4, align 8
  %51 = load i32, i32* %6, align 4
  %52 = sext i32 %51 to i64
  %53 = getelementptr inbounds i8, i8* %50, i64 %52
  store i8 0, i8* %53, align 1
  %54 = load i32, i32* %7, align 4
  %55 = add nsw i32 %54, -1
  store i32 %55, i32* %7, align 4
  br label %60

56:                                               ; preds = %31
  br label %57

57:                                               ; preds = %56
  %58 = load i32, i32* %6, align 4
  %59 = add nsw i32 %58, 1
  store i32 %59, i32* %6, align 4
  br label %27

60:                                               ; preds = %45, %27
  br label %61

61:                                               ; preds = %60
  %62 = load i32, i32* %5, align 4
  %63 = add nsw i32 %62, 1
  store i32 %63, i32* %5, align 4
  br label %22

64:                                               ; preds = %22
  br label %65

65:                                               ; preds = %64, %19
  %66 = load i32, i32* %7, align 4
  ret i32 %66
}

declare dso_local i32 @printf(i8*, ...) #1

; Function Attrs: nounwind readonly
declare dso_local i64 @strlen(i8*) #2


!llvm.module.flags = !{!0}
!llvm.ident = !{!1}

!0 = !{i32 1, !"wchar_size", i32 4}
!1 = !{!"clang version 10.0.0-4ubuntu1 "}
