; ModuleID = 'source-C-CXX/35/337.c'
source_filename = "source-C-CXX/35/337.c"
target datalayout = "e-m:e-p270:32:32-p271:32:32-p272:64:64-i64:64-f80:128-n8:16:32:64-S128"
target triple = "x86_64-pc-linux-gnu"

@.str = private unnamed_addr constant [5 x i8] c"%s%s\00", align 1
@.str.1 = private unnamed_addr constant [4 x i8] c"YES\00", align 1
@.str.2 = private unnamed_addr constant [3 x i8] c"NO\00", align 1

; Function Attrs: nofree nounwind sspstrong uwtable
define dso_local void @main() local_unnamed_addr #0 {
  %1 = alloca [100 x i8], align 16
  %2 = alloca [100 x i8], align 16
  %3 = getelementptr inbounds [100 x i8], [100 x i8]* %1, i64 0, i64 0
  call void @llvm.lifetime.start.p0i8(i64 100, i8* nonnull %3) #4
  %4 = getelementptr inbounds [100 x i8], [100 x i8]* %2, i64 0, i64 0
  call void @llvm.lifetime.start.p0i8(i64 100, i8* nonnull %4) #4
  %5 = call i32 (i8*, ...) @__isoc99_scanf(i8* getelementptr inbounds ([5 x i8], [5 x i8]* @.str, i64 0, i64 0), i8* nonnull %3, i8* nonnull %4)
  %6 = call i64 @strlen(i8* noundef nonnull dereferenceable(1) %3) #5
  %7 = trunc i64 %6 to i32
  %8 = call i64 @strlen(i8* noundef nonnull dereferenceable(1) %4) #5
  %9 = trunc i64 %8 to i32
  %10 = icmp eq i32 %7, %9
  br i1 %10, label %11, label %39

11:                                               ; preds = %0
  %12 = icmp sgt i32 %7, 0
  br i1 %12, label %13, label %36

13:                                               ; preds = %11
  %14 = and i64 %6, 4294967295
  br label %15

15:                                               ; preds = %32, %13
  %16 = phi i64 [ 0, %13 ], [ %34, %32 ]
  %17 = phi i32 [ %7, %13 ], [ %33, %32 ]
  %18 = getelementptr inbounds [100 x i8], [100 x i8]* %1, i64 0, i64 %16
  %19 = load i8, i8* %18, align 1, !tbaa !5
  br label %20

20:                                               ; preds = %25, %15
  %21 = phi i64 [ 0, %15 ], [ %26, %25 ]
  %22 = getelementptr inbounds [100 x i8], [100 x i8]* %2, i64 0, i64 %21
  %23 = load i8, i8* %22, align 1, !tbaa !5
  %24 = icmp eq i8 %19, %23
  br i1 %24, label %28, label %25

25:                                               ; preds = %20
  %26 = add nuw nsw i64 %21, 1
  %27 = icmp eq i64 %26, %14
  br i1 %27, label %32, label %20, !llvm.loop !8

28:                                               ; preds = %20
  %29 = and i64 %21, 4294967295
  %30 = getelementptr inbounds [100 x i8], [100 x i8]* %2, i64 0, i64 %29
  store i8 0, i8* %18, align 1, !tbaa !5
  store i8 0, i8* %30, align 1, !tbaa !5
  %31 = add nsw i32 %17, -1
  br label %32

32:                                               ; preds = %25, %28
  %33 = phi i32 [ %31, %28 ], [ %17, %25 ]
  %34 = add nuw nsw i64 %16, 1
  %35 = icmp eq i64 %34, %14
  br i1 %35, label %36, label %15, !llvm.loop !10

36:                                               ; preds = %32, %11
  %37 = phi i32 [ %7, %11 ], [ %33, %32 ]
  %38 = icmp eq i32 %37, 0
  br i1 %38, label %40, label %39

39:                                               ; preds = %0, %36
  br label %40

40:                                               ; preds = %36, %39
  %41 = phi i8* [ getelementptr inbounds ([3 x i8], [3 x i8]* @.str.2, i64 0, i64 0), %39 ], [ getelementptr inbounds ([4 x i8], [4 x i8]* @.str.1, i64 0, i64 0), %36 ]
  %42 = call i32 (i8*, ...) @printf(i8* nonnull dereferenceable(1) %41)
  call void @llvm.lifetime.end.p0i8(i64 100, i8* nonnull %4) #4
  call void @llvm.lifetime.end.p0i8(i64 100, i8* nonnull %3) #4
  ret void
}

; Function Attrs: argmemonly mustprogress nofree nosync nounwind willreturn
declare void @llvm.lifetime.start.p0i8(i64 immarg, i8* nocapture) #1

; Function Attrs: nofree nounwind
declare noundef i32 @__isoc99_scanf(i8* nocapture noundef readonly, ...) local_unnamed_addr #2

; Function Attrs: nofree nounwind sspstrong uwtable
define dso_local i32 @flag(i8* nocapture %0, i8* nocapture %1) local_unnamed_addr #0 {
  %3 = tail call i64 @strlen(i8* noundef nonnull dereferenceable(1) %0) #5
  %4 = trunc i64 %3 to i32
  %5 = tail call i64 @strlen(i8* noundef nonnull dereferenceable(1) %1) #5
  %6 = trunc i64 %5 to i32
  %7 = icmp eq i32 %4, %6
  br i1 %7, label %8, label %33

8:                                                ; preds = %2
  %9 = icmp sgt i32 %4, 0
  br i1 %9, label %10, label %33

10:                                               ; preds = %8
  %11 = and i64 %3, 4294967295
  br label %12

12:                                               ; preds = %10, %29
  %13 = phi i64 [ 0, %10 ], [ %31, %29 ]
  %14 = phi i32 [ %4, %10 ], [ %30, %29 ]
  %15 = getelementptr inbounds i8, i8* %0, i64 %13
  %16 = load i8, i8* %15, align 1, !tbaa !5
  br label %17

17:                                               ; preds = %12, %22
  %18 = phi i64 [ 0, %12 ], [ %23, %22 ]
  %19 = getelementptr inbounds i8, i8* %1, i64 %18
  %20 = load i8, i8* %19, align 1, !tbaa !5
  %21 = icmp eq i8 %16, %20
  br i1 %21, label %25, label %22

22:                                               ; preds = %17
  %23 = add nuw nsw i64 %18, 1
  %24 = icmp eq i64 %23, %11
  br i1 %24, label %29, label %17, !llvm.loop !8

25:                                               ; preds = %17
  %26 = and i64 %18, 4294967295
  %27 = getelementptr inbounds i8, i8* %1, i64 %26
  store i8 0, i8* %15, align 1, !tbaa !5
  store i8 0, i8* %27, align 1, !tbaa !5
  %28 = add nsw i32 %14, -1
  br label %29

29:                                               ; preds = %22, %25
  %30 = phi i32 [ %28, %25 ], [ %14, %22 ]
  %31 = add nuw nsw i64 %13, 1
  %32 = icmp eq i64 %31, %11
  br i1 %32, label %33, label %12, !llvm.loop !10

33:                                               ; preds = %29, %8, %2
  %34 = phi i32 [ 1, %2 ], [ %4, %8 ], [ %30, %29 ]
  ret i32 %34
}

; Function Attrs: nofree nounwind
declare noundef i32 @printf(i8* nocapture noundef readonly, ...) local_unnamed_addr #2

; Function Attrs: argmemonly mustprogress nofree nosync nounwind willreturn
declare void @llvm.lifetime.end.p0i8(i64 immarg, i8* nocapture) #1

; Function Attrs: argmemonly mustprogress nofree nounwind readonly willreturn
declare i64 @strlen(i8* nocapture) local_unnamed_addr #3


!llvm.module.flags = !{!0, !1, !2, !3}
!llvm.ident = !{!4}

!0 = !{i32 1, !"wchar_size", i32 4}
!1 = !{i32 7, !"PIC Level", i32 2}
!2 = !{i32 7, !"PIE Level", i32 2}
!3 = !{i32 7, !"uwtable", i32 1}
!4 = !{!"clang version 13.0.0"}
!5 = !{!6, !6, i64 0}
!6 = !{!"omnipotent char", !7, i64 0}
!7 = !{!"Simple C/C++ TBAA"}
!8 = distinct !{!8, !9}
!9 = !{!"llvm.loop.mustprogress"}
!10 = distinct !{!10, !9}
